target datalayout = "e-m:e-p270:32:32-p271:32:32-p272:64:64-i64:64-i128:128-f80:128-n8:16:32:64-S128"
target triple = "x86_64-pc-linux-gnu"

; Function Attrs: nounwind uwtable
define internal i32 @md_gets(ptr noundef %0, ptr noundef %1, i32 noundef %2) #0 {
  %4 = alloca i32, align 4
  %5 = alloca ptr, align 8
  %6 = alloca ptr, align 8
  %7 = alloca i32, align 4
  %8 = alloca ptr, align 8
  %9 = alloca i32, align 4
  %10 = alloca i32, align 4
  store ptr %0, ptr %5, align 8, !tbaa !3
  store ptr %1, ptr %6, align 8, !tbaa !8
  store i32 %2, ptr %7, align 4, !tbaa !10
  call void @llvm.lifetime.start.p0(i64 8, ptr %8) #3
  call void @llvm.lifetime.start.p0(i64 4, ptr %9) #3
  %11 = load ptr, ptr %5, align 8, !tbaa !3
  %12 = call ptr @BIO_get_data(ptr noundef %11)
  store ptr %12, ptr %8, align 8, !tbaa !12
  %13 = load i32, ptr %7, align 4, !tbaa !10
  %14 = load ptr, ptr %8, align 8, !tbaa !12
  %15 = call i32 @EVP_MD_CTX_get_size_ex(ptr noundef %14)
  %16 = icmp slt i32 %13, %15
  br i1 %16, label %17, label %18

17:                                               ; preds = %3
  store i32 0, ptr %4, align 4
  store i32 1, ptr %10, align 4
  br label %26

18:                                               ; preds = %3
  %19 = load ptr, ptr %8, align 8, !tbaa !12
  %20 = load ptr, ptr %6, align 8, !tbaa !8
  %21 = call i32 @EVP_DigestFinal_ex(ptr noundef %19, ptr noundef %20, ptr noundef %9)
  %22 = icmp sle i32 %21, 0
  br i1 %22, label %23, label %24

23:                                               ; preds = %18
  store i32 -1, ptr %4, align 4
  store i32 1, ptr %10, align 4
  br label %26

24:                                               ; preds = %18
  %25 = load i32, ptr %9, align 4, !tbaa !10
  store i32 %25, ptr %4, align 4
  store i32 1, ptr %10, align 4
  br label %26

26:                                               ; preds = %24, %23, %17
  call void @llvm.lifetime.end.p0(i64 4, ptr %9) #3
  call void @llvm.lifetime.end.p0(i64 8, ptr %8) #3
  %27 = load i32, ptr %4, align 4
  ret i32 %27
}