; Function Attrs: nounwind uwtable
define internal i32 @md_gets(ptr noundef %0, ptr noundef %1, i32 noundef %2) #2 {
  %4 = alloca i32, align 4
  call void @llvm.lifetime.start.p0(i64 4, ptr nonnull %4) #4
  %5 = tail call ptr @BIO_get_data(ptr noundef %0) #4
  %6 = tail call i32 @EVP_MD_CTX_get_size_ex(ptr noundef %5) #4
  %7 = icmp slt i32 %2, %6
  br i1 %7, label %12, label %8

8:                                                ; preds = %3
  %9 = call i32 @EVP_DigestFinal_ex(ptr noundef %5, ptr noundef %1, ptr noundef nonnull %4) #4
  %10 = icmp slt i32 %9, 1
  %11 = load i32, ptr %4, align 4
  %spec.select = select i1 %10, i32 -1, i32 %11
  br label %12

12:                                               ; preds = %8, %3
  %.0 = phi i32 [ 0, %3 ], [ %spec.select, %8 ]
  call void @llvm.lifetime.end.p0(i64 4, ptr nonnull %4) #4
  ret i32 %.0
}